; Listing generated by Microsoft (R) Optimizing Compiler Version 19.44.35207.1 

include listing.inc

INCLUDELIB MSVCRTD
INCLUDELIB OLDNAMES

PUBLIC	_Avx2WmemEnabledWeakValue
;	COMDAT _Avx2WmemEnabledWeakValue
_BSS	SEGMENT
_Avx2WmemEnabledWeakValue DD 01H DUP (?)
_BSS	ENDS
msvcjmc	SEGMENT
__8C83BECC_concurrencysal@h DB 01H
__608E3340_sal@h DB 01H
__FB67E29A_vadefs@h DB 01H
__1D1B619C_vcruntime@h DB 01H
__F9C62481_xkeycheck@h DB 01H
__3D7FC843_yvals_core@h DB 01H
__735960E1_corecrt@h DB 01H
__CB8A55F3_float@h DB 01H
__30B8F8B3_cfloat DB 01H
__3D1CA2C3_limits@h DB 01H
__56354F6D_climits DB 01H
__2EA5EA2E_vcruntime_new@h DB 01H
__52221516_vcruntime_new_debug@h DB 01H
__15FC02C9_crtdbg@h DB 01H
__09890252_crtdefs@h DB 01H
__99AC0F50_use_ansi@h DB 01H
__649ADB20_yvals@h DB 01H
__1D9A7FA2_corecrt_math@h DB 01H
__2E93F1C0_math@h DB 01H
__211DB995_corecrt_malloc@h DB 01H
__955456CD_stddef@h DB 01H
__99AED4FB_corecrt_search@h DB 01H
__8B813BF6_corecrt_wstdlib@h DB 01H
__E8FB0A68_stdlib@h DB 01H
__D2DA6D9F_cstdlib DB 01H
__62A23D19_xtr1common DB 01H
__47E843D2_intrin0@inl@h DB 01H
__10A4BB59_intrin0@h DB 01H
__02343DF7_cmath DB 01H
__60B45B40_corecrt_stdio_config@h DB 01H
__CFA3741E_corecrt_wstdio@h DB 01H
__B3FE3303_stdio@h DB 01H
__43FC3334_cstdio DB 01H
__13DE2371_errno@h DB 01H
__8C6AE390_vcruntime_string@h DB 01H
__8ACB2152_corecrt_memcpy_s@h DB 01H
__EA6C9D17_corecrt_memory@h DB 01H
__0DF2AF52_corecrt_wstring@h DB 01H
__6E889ECC_string@h DB 01H
__9E48C57F_cstring DB 01H
__8BDC0229_corecrt_wconio@h DB 01H
__108B2620_corecrt_wctype@h DB 01H
__547F429B_corecrt_wdirect@h DB 01H
__260A2221_corecrt_share@h DB 01H
__EB642103_corecrt_wio@h DB 01H
__F49D648E_corecrt_wprocess@h DB 01H
__9E5BC8DA_corecrt_wtime@h DB 01H
__2A5E3E75_types@h DB 01H
__B16B2B9B_stat@h DB 01H
__130964FF_setjmp@h DB 01H
__5C8CA4D3_mmintrin@h DB 01H
__7CD62D9E_malloc@h DB 01H
__9DCE0DC8_xmmintrin@h DB 01H
__F8AC8404_emmintrin@h DB 01H
__270DEC8D_pmmintrin@h DB 01H
__97D49F0F_tmmintrin@h DB 01H
__BEEF8A8C_smmintrin@h DB 01H
__DB8D0340_nmmintrin@h DB 01H
__0E36F90E_wmmintrin@h DB 01H
__C5A2B409_zmmintrin@h DB 01H
__F2B616C3_immintrin@h DB 01H
__4875F786_ammintrin@h DB 01H
__353FD888_intrin@h DB 01H
__4DD8D0FE_wchar@h DB 01H
__D977E567_cwchar DB 01H
__9AB76051_iosfwd DB 01H
__7711B732_cstddef DB 01H
__9645C8FF_initializer_list DB 01H
__836A8CFC_stdint@h DB 01H
__6F848CE2_cstdint DB 01H
__B76FE24A_type_traits DB 01H
__E5D7E814_utility DB 01H
__C92E16D2___msvc_iter_core@hpp DB 01H
__EFB2F401_xutility DB 01H
__FE1E4341_iterator DB 01H
__85852BDB_share@h DB 01H
__729AB2C8___msvc_system_error_abi@hpp DB 01H
__DEDD47CF_cerrno DB 01H
__C071288D_corecrt_terminate@h DB 01H
__19EE6F19_eh@h DB 01H
__5ACC1044_vcruntime_exception@h DB 01H
__C1D66CC4_exception DB 01H
__8BF225E6___msvc_sanitizer_annotate_container@hpp DB 01H
__9C6F385E___msvc_string_view@hpp DB 01H
__565EB5D7_limits DB 01H
__29151002_new DB 01H
__CBDAE012_xatomic@h DB 01H
__8F428BD7_xmemory DB 01H
__FB910D4B_xstring DB 01H
__48985699_stdexcept DB 01H
__7EE71613_xcall_once@h DB 01H
__CC0FCE2F_xerrc@h DB 01H
__CCCF7540___msvc_threads_core@hpp DB 01H
__1FF36214_time@h DB 01H
__C487A1FF_ctime DB 01H
__59761740_xtimec@h DB 01H
__F8E238E3_xthreads@h DB 01H
__3D6BE915_atomic DB 01H
__C1BA0433_system_error DB 01H
__DDC0F04D_vcruntime_typeinfo@h DB 01H
__9F6D0718_typeinfo DB 01H
__EAF0B959_memory DB 01H
__C6B5EE56_xfacet DB 01H
__C70396E3___msvc_xlocinfo_types@hpp DB 01H
__6CD6613D_ctype@h DB 01H
__4C37D493_cctype DB 01H
__FFBDF365_locale@h DB 01H
__4176B14E_clocale DB 01H
__80E4E4D0_xlocinfo DB 01H
__24AF797A_xlocale DB 01H
__B90193C3_xiosbase DB 01H
__4A38EE25_streambuf DB 01H
__BA281F6D_xlocnum DB 01H
__D1D82A14_ios DB 01H
__00DCFE7C___msvc_ostream@hpp DB 01H
__546F9684_istream DB 01H
__37BFA3BE_ostream DB 01H
__8DCB8E1E_iostream DB 01H
__C7275589_Log@h DB 01H
__ED937074_HelloWorld@cpp DB 01H
msvcjmc	ENDS
PUBLIC	?__empty_global_delete@@YAXPEAX@Z		; __empty_global_delete
PUBLIC	?__empty_global_delete@@YAXPEAX_K@Z		; __empty_global_delete
PUBLIC	main
PUBLIC	__JustMyCode_Default
PUBLIC	??_C@_0O@KLMCIIGF@Hello?0?5World?$CB@		; `string'
EXTRN	?Log@@YAXPEBD@Z:PROC				; Log
EXTRN	_RTC_InitBase:PROC
EXTRN	_RTC_Shutdown:PROC
EXTRN	__CheckForDebuggerJustMyCode:PROC
;	COMDAT pdata
pdata	SEGMENT
$pdata$?__empty_global_delete@@YAXPEAX@Z DD imagerel $LN3
	DD	imagerel $LN3+42
	DD	imagerel $unwind$?__empty_global_delete@@YAXPEAX@Z
pdata	ENDS
;	COMDAT pdata
pdata	SEGMENT
$pdata$?__empty_global_delete@@YAXPEAX_K@Z DD imagerel $LN3
	DD	imagerel $LN3+47
	DD	imagerel $unwind$?__empty_global_delete@@YAXPEAX_K@Z
pdata	ENDS
;	COMDAT pdata
pdata	SEGMENT
$pdata$main DD	imagerel $LN3
	DD	imagerel $LN3+53
	DD	imagerel $unwind$main
pdata	ENDS
;	COMDAT rtc$TMZ
rtc$TMZ	SEGMENT
_RTC_Shutdown.rtc$TMZ DQ FLAT:_RTC_Shutdown
rtc$TMZ	ENDS
;	COMDAT rtc$IMZ
rtc$IMZ	SEGMENT
_RTC_InitBase.rtc$IMZ DQ FLAT:_RTC_InitBase
rtc$IMZ	ENDS
;	COMDAT ??_C@_0O@KLMCIIGF@Hello?0?5World?$CB@
CONST	SEGMENT
??_C@_0O@KLMCIIGF@Hello?0?5World?$CB@ DB 'Hello, World!', 00H ; `string'
CONST	ENDS
;	COMDAT xdata
xdata	SEGMENT
$unwind$main DD	025050f01H
	DD	010a230fH
	DD	07003001dH
	DD	05002H
xdata	ENDS
;	COMDAT xdata
xdata	SEGMENT
$unwind$?__empty_global_delete@@YAXPEAX_K@Z DD 025051801H
	DD	01132318H
	DD	0700c001dH
	DD	0500bH
xdata	ENDS
;	COMDAT xdata
xdata	SEGMENT
$unwind$?__empty_global_delete@@YAXPEAX@Z DD 025051301H
	DD	010e2313H
	DD	07007001dH
	DD	05006H
xdata	ENDS
; Function compile flags: /Odt
;	COMDAT __JustMyCode_Default
_TEXT	SEGMENT
__JustMyCode_Default PROC				; COMDAT
	ret	0
__JustMyCode_Default ENDP
_TEXT	ENDS
; Function compile flags: /Odtp /RTCsu /ZI
;	COMDAT main
_TEXT	SEGMENT
main	PROC						; COMDAT
; File C:\Users\91638\Desktop\Learning MF\Learning\C++\The_Cherno\HelloWorld\HelloWorld\HelloWorld.cpp
; Line 7
$LN3:
	push	rbp
	push	rdi
	sub	rsp, 232				; 000000e8H
	lea	rbp, QWORD PTR [rsp+32]
	lea	rcx, OFFSET FLAT:__ED937074_HelloWorld@cpp
	call	__CheckForDebuggerJustMyCode
	npad	1
; Line 8
	lea	rcx, OFFSET FLAT:??_C@_0O@KLMCIIGF@Hello?0?5World?$CB@
	call	?Log@@YAXPEBD@Z				; Log
	npad	1
; Line 9
	xor	eax, eax
; Line 10
	lea	rsp, QWORD PTR [rbp+200]
	pop	rdi
	pop	rbp
	ret	0
main	ENDP
_TEXT	ENDS
; Function compile flags: /Odtp /RTCsu /ZI
;	COMDAT ?__empty_global_delete@@YAXPEAX_K@Z
_TEXT	SEGMENT
__formal$ = 224
__formal$ = 232
?__empty_global_delete@@YAXPEAX_K@Z PROC		; __empty_global_delete, COMDAT
; File C:\Users\91638\Desktop\Learning MF\Learning\C++\The_Cherno\HelloWorld\HelloWorld\HelloWorld.cpp
; Line 31
$LN3:
	mov	QWORD PTR [rsp+16], rdx
	mov	QWORD PTR [rsp+8], rcx
	push	rbp
	push	rdi
	sub	rsp, 232				; 000000e8H
	lea	rbp, QWORD PTR [rsp+32]
	lea	rcx, OFFSET FLAT:__ED937074_HelloWorld@cpp
	call	__CheckForDebuggerJustMyCode
	npad	1
	lea	rsp, QWORD PTR [rbp+200]
	pop	rdi
	pop	rbp
	ret	0
?__empty_global_delete@@YAXPEAX_K@Z ENDP		; __empty_global_delete
_TEXT	ENDS
; Function compile flags: /Odtp /RTCsu /ZI
;	COMDAT ?__empty_global_delete@@YAXPEAX@Z
_TEXT	SEGMENT
__formal$ = 224
?__empty_global_delete@@YAXPEAX@Z PROC			; __empty_global_delete, COMDAT
; File C:\Users\91638\Desktop\Learning MF\Learning\C++\The_Cherno\HelloWorld\HelloWorld\HelloWorld.cpp
; Line 31
$LN3:
	mov	QWORD PTR [rsp+8], rcx
	push	rbp
	push	rdi
	sub	rsp, 232				; 000000e8H
	lea	rbp, QWORD PTR [rsp+32]
	lea	rcx, OFFSET FLAT:__ED937074_HelloWorld@cpp
	call	__CheckForDebuggerJustMyCode
	npad	1
	lea	rsp, QWORD PTR [rbp+200]
	pop	rdi
	pop	rbp
	ret	0
?__empty_global_delete@@YAXPEAX@Z ENDP			; __empty_global_delete
_TEXT	ENDS
END
